target datalayout = "e-m:e-p270:32:32-p271:32:32-p272:64:64-i64:64-i128:128-f80:128-n8:16:32:64-S128"
target triple = "x86_64-pc-linux-gnu"

%struct.QemuMutex = type { %union.pthread_mutex_t, i8 }
%union.pthread_mutex_t = type { %struct.__pthread_mutex_s }
%struct.__pthread_mutex_s = type { i32, i32, i32, i32, i32, i16, i16, %struct.__pthread_internal_list }
%struct.__pthread_internal_list = type { ptr, ptr }
%struct.JobTxn = type { i8, %struct.anon, i32 }
%struct.anon = type { ptr }
%struct.Job = type { ptr, ptr, ptr, i8, i8, ptr, ptr, %struct.ProgressMeter, ptr, i32, i32, %struct.QEMUTimer, i32, i8, i8, i8, i8, i8, i8, i32, ptr, %struct.NotifierList, %struct.NotifierList, %struct.NotifierList, %struct.NotifierList, %struct.NotifierList, %struct.anon.1, ptr, %struct.anon.2 }
%struct.ProgressMeter = type { i64, i64, %struct.QemuMutex }
%struct.QEMUTimer = type { i64, ptr, ptr, ptr, ptr, i32, i32 }
%struct.NotifierList = type { %struct.anon.0 }
%struct.anon.0 = type { ptr }
%struct.anon.1 = type { ptr, ptr }
%struct.anon.2 = type { ptr, ptr }

@qemu_mutex_lock_func = external global ptr, align 8
@job_mutex = dso_local global %struct.QemuMutex zeroinitializer, align 8
@.str = private unnamed_addr constant [14 x i8] c"../qemu/job.c\00", align 1
@.str.5 = private unnamed_addr constant [37 x i8] c"job->cancelled || !job->force_cancel\00", align 1
@__PRETTY_FUNCTION__.job_is_cancelled_locked = private unnamed_addr constant [37 x i8] c"_Bool job_is_cancelled_locked(Job *)\00", align 1
@.str.15 = private unnamed_addr constant [28 x i8] c"!job->deferred_to_main_loop\00", align 1
@__PRETTY_FUNCTION__.job_enter_cond_locked = private unnamed_addr constant [52 x i8] c"void job_enter_cond_locked(Job *, _Bool (*)(Job *))\00", align 1
@.str.19 = private unnamed_addr constant [4 x i8] c"job\00", align 1
@__PRETTY_FUNCTION__.job_do_dismiss_locked = private unnamed_addr constant [34 x i8] c"void job_do_dismiss_locked(Job *)\00", align 1

; Function Attrs: nounwind sspstrong uwtable
define dso_local void @job_txn_unref_locked(ptr noundef %0) #0 {
  %2 = alloca ptr, align 8
  store ptr %0, ptr %2, align 8
  %3 = load ptr, ptr %2, align 8
  %4 = icmp ne ptr %3, null
  br i1 %4, label %5, label %13

5:                                                ; preds = %1
  %6 = load ptr, ptr %2, align 8
  %7 = getelementptr inbounds nuw %struct.JobTxn, ptr %6, i32 0, i32 2
  %8 = load i32, ptr %7, align 8
  %9 = add i32 %8, -1
  store i32 %9, ptr %7, align 8
  %10 = icmp eq i32 %9, 0
  br i1 %10, label %11, label %13

11:                                               ; preds = %5
  %12 = load ptr, ptr %2, align 8
  call void @g_free(ptr noundef %12)
  br label %13

13:                                               ; preds = %11, %5, %1
  ret void
}

; Function Attrs: nounwind sspstrong uwtable
define dso_local void @job_lock() #0 {
  %1 = alloca ptr, align 8
  %2 = alloca ptr, align 8
  %3 = alloca ptr, align 8
  call void @llvm.lifetime.start.p0(i64 8, ptr %1) #16
  br label %4

4:                                                ; preds = %0
  br i1 false, label %5, label %6

5:                                                ; preds = %4
  call void @qemu_build_not_reached_always() #17, !srcloc !4
  unreachable

6:                                                ; preds = %4
  %7 = load atomic i64, ptr @qemu_mutex_lock_func monotonic, align 8
  store i64 %7, ptr %3, align 8
  %8 = load ptr, ptr %3, align 8
  store ptr %8, ptr %2, align 8
  %9 = load ptr, ptr %2, align 8
  store ptr %9, ptr %1, align 8
  %10 = load ptr, ptr %1, align 8
  call void %10(ptr noundef @job_mutex, ptr noundef @.str, i32 noundef 101)
  call void @llvm.lifetime.end.p0(i64 8, ptr %1) #16
  ret void
}

; Function Attrs: nounwind sspstrong uwtable
define dso_local void @job_unlock() #0 {
  call void @qemu_mutex_unlock_impl(ptr noundef @job_mutex, ptr noundef @.str, i32 noundef 106)
  ret void
}

; Function Attrs: nounwind sspstrong uwtable
define internal void @job_txn_del_job_locked(ptr noundef %0) #0 {
  %2 = alloca ptr, align 8
  store ptr %0, ptr %2, align 8
  %3 = load ptr, ptr %2, align 8
  %4 = getelementptr inbounds nuw %struct.Job, ptr %3, i32 0, i32 27
  %5 = load ptr, ptr %4, align 8
  %6 = icmp ne ptr %5, null
  br i1 %6, label %7, label %46

7:                                                ; preds = %1
  br label %8

8:                                                ; preds = %7
  %9 = load ptr, ptr %2, align 8
  %10 = getelementptr inbounds nuw %struct.Job, ptr %9, i32 0, i32 28
  %11 = getelementptr inbounds nuw %struct.anon.2, ptr %10, i32 0, i32 0
  %12 = load ptr, ptr %11, align 8
  %13 = icmp ne ptr %12, null
  br i1 %13, label %14, label %25

14:                                               ; preds = %8
  %15 = load ptr, ptr %2, align 8
  %16 = getelementptr inbounds nuw %struct.Job, ptr %15, i32 0, i32 28
  %17 = getelementptr inbounds nuw %struct.anon.2, ptr %16, i32 0, i32 1
  %18 = load ptr, ptr %17, align 8
  %19 = load ptr, ptr %2, align 8
  %20 = getelementptr inbounds nuw %struct.Job, ptr %19, i32 0, i32 28
  %21 = getelementptr inbounds nuw %struct.anon.2, ptr %20, i32 0, i32 0
  %22 = load ptr, ptr %21, align 8
  %23 = getelementptr inbounds nuw %struct.Job, ptr %22, i32 0, i32 28
  %24 = getelementptr inbounds nuw %struct.anon.2, ptr %23, i32 0, i32 1
  store ptr %18, ptr %24, align 8
  br label %25

25:                                               ; preds = %14, %8
  %26 = load ptr, ptr %2, align 8
  %27 = getelementptr inbounds nuw %struct.Job, ptr %26, i32 0, i32 28
  %28 = getelementptr inbounds nuw %struct.anon.2, ptr %27, i32 0, i32 0
  %29 = load ptr, ptr %28, align 8
  %30 = load ptr, ptr %2, align 8
  %31 = getelementptr inbounds nuw %struct.Job, ptr %30, i32 0, i32 28
  %32 = getelementptr inbounds nuw %struct.anon.2, ptr %31, i32 0, i32 1
  %33 = load ptr, ptr %32, align 8
  store ptr %29, ptr %33, align 8
  %34 = load ptr, ptr %2, align 8
  %35 = getelementptr inbounds nuw %struct.Job, ptr %34, i32 0, i32 28
  %36 = getelementptr inbounds nuw %struct.anon.2, ptr %35, i32 0, i32 0
  store ptr null, ptr %36, align 8
  %37 = load ptr, ptr %2, align 8
  %38 = getelementptr inbounds nuw %struct.Job, ptr %37, i32 0, i32 28
  %39 = getelementptr inbounds nuw %struct.anon.2, ptr %38, i32 0, i32 1
  store ptr null, ptr %39, align 8
  br label %40

40:                                               ; preds = %25
  %41 = load ptr, ptr %2, align 8
  %42 = getelementptr inbounds nuw %struct.Job, ptr %41, i32 0, i32 27
  %43 = load ptr, ptr %42, align 8
  call void @job_txn_unref_locked(ptr noundef %43)
  %44 = load ptr, ptr %2, align 8
  %45 = getelementptr inbounds nuw %struct.Job, ptr %44, i32 0, i32 27
  store ptr null, ptr %45, align 8
  br label %46

46:                                               ; preds = %40, %1
  ret void
}

; Function Attrs: nounwind sspstrong uwtable
define dso_local void @job_enter_cond_locked(ptr noundef %0, ptr noundef %1) #0 {
  %3 = alloca ptr, align 8
  %4 = alloca ptr, align 8
  store ptr %0, ptr %3, align 8
  store ptr %1, ptr %4, align 8
  %5 = load ptr, ptr %3, align 8
  %6 = call zeroext i1 @job_started_locked(ptr noundef %5)
  br i1 %6, label %8, label %7

7:                                                ; preds = %2
  br label %43

8:                                                ; preds = %2
  %9 = load ptr, ptr %3, align 8
  %10 = getelementptr inbounds nuw %struct.Job, ptr %9, i32 0, i32 18
  %11 = load i8, ptr %10, align 1, !range !7, !noundef !8
  %12 = trunc i8 %11 to i1
  br i1 %12, label %13, label %14

13:                                               ; preds = %8
  br label %43

14:                                               ; preds = %8
  %15 = load ptr, ptr %3, align 8
  %16 = getelementptr inbounds nuw %struct.Job, ptr %15, i32 0, i32 13
  %17 = load i8, ptr %16, align 4, !range !7, !noundef !8
  %18 = trunc i8 %17 to i1
  br i1 %18, label %19, label %20

19:                                               ; preds = %14
  br label %43

20:                                               ; preds = %14
  %21 = load ptr, ptr %4, align 8
  %22 = icmp ne ptr %21, null
  br i1 %22, label %23, label %28

23:                                               ; preds = %20
  %24 = load ptr, ptr %4, align 8
  %25 = load ptr, ptr %3, align 8
  %26 = call zeroext i1 %24(ptr noundef %25)
  br i1 %26, label %28, label %27

27:                                               ; preds = %23
  br label %43

28:                                               ; preds = %23, %20
  %29 = load ptr, ptr %3, align 8
  %30 = getelementptr inbounds nuw %struct.Job, ptr %29, i32 0, i32 18
  %31 = load i8, ptr %30, align 1, !range !7, !noundef !8
  %32 = trunc i8 %31 to i1
  br i1 %32, label %34, label %33

33:                                               ; preds = %28
  br label %35

34:                                               ; preds = %28
  call void @__assert_fail(ptr noundef @.str.15, ptr noundef @.str, i32 noundef 549, ptr noundef @__PRETTY_FUNCTION__.job_enter_cond_locked) #20
  unreachable

35:                                               ; preds = %33
  %36 = load ptr, ptr %3, align 8
  %37 = getelementptr inbounds nuw %struct.Job, ptr %36, i32 0, i32 11
  call void @timer_del(ptr noundef %37)
  %38 = load ptr, ptr %3, align 8
  %39 = getelementptr inbounds nuw %struct.Job, ptr %38, i32 0, i32 13
  store i8 1, ptr %39, align 4
  call void @job_unlock()
  %40 = load ptr, ptr %3, align 8
  %41 = getelementptr inbounds nuw %struct.Job, ptr %40, i32 0, i32 2
  %42 = load ptr, ptr %41, align 8
  call void @aio_co_wake(ptr noundef %42)
  call void @job_lock()
  br label %43

43:                                               ; preds = %35, %27, %19, %13, %7
  ret void
}

; Function Attrs: nounwind sspstrong uwtable
define dso_local zeroext i1 @job_is_cancelled_locked(ptr noundef %0) #0 {
  %2 = alloca ptr, align 8
  store ptr %0, ptr %2, align 8
  %3 = load ptr, ptr %2, align 8
  %4 = getelementptr inbounds nuw %struct.Job, ptr %3, i32 0, i32 16
  %5 = load i8, ptr %4, align 1, !range !7, !noundef !8
  %6 = trunc i8 %5 to i1
  br i1 %6, label %12, label %7

7:                                                ; preds = %1
  %8 = load ptr, ptr %2, align 8
  %9 = getelementptr inbounds nuw %struct.Job, ptr %8, i32 0, i32 17
  %10 = load i8, ptr %9, align 8, !range !7, !noundef !8
  %11 = trunc i8 %10 to i1
  br i1 %11, label %13, label %12

12:                                               ; preds = %7, %1
  br label %14

13:                                               ; preds = %7
  call void @__assert_fail(ptr noundef @.str.5, ptr noundef @.str, i32 noundef 250, ptr noundef @__PRETTY_FUNCTION__.job_is_cancelled_locked) #20
  unreachable

14:                                               ; preds = %12
  %15 = load ptr, ptr %2, align 8
  %16 = getelementptr inbounds nuw %struct.Job, ptr %15, i32 0, i32 17
  %17 = load i8, ptr %16, align 8, !range !7, !noundef !8
  %18 = trunc i8 %17 to i1
  ret i1 %18
}

; Function Attrs: nounwind sspstrong uwtable
define internal zeroext i1 @job_started_locked(ptr noundef %0) #0 {
  %2 = alloca ptr, align 8
  store ptr %0, ptr %2, align 8
  %3 = load ptr, ptr %2, align 8
  %4 = getelementptr inbounds nuw %struct.Job, ptr %3, i32 0, i32 2
  %5 = load ptr, ptr %4, align 8
  %6 = icmp ne ptr %5, null
  ret i1 %6
}

; Function Attrs: nounwind sspstrong uwtable
define internal void @job_do_dismiss_locked(ptr noundef %0) #0 {
  %2 = alloca ptr, align 8
  store ptr %0, ptr %2, align 8
  %3 = load ptr, ptr %2, align 8
  %4 = icmp ne ptr %3, null
  br i1 %4, label %5, label %6

5:                                                ; preds = %1
  br label %7

6:                                                ; preds = %1
  call void @__assert_fail(ptr noundef @.str.19, ptr noundef @.str, i32 noundef 757, ptr noundef @__PRETTY_FUNCTION__.job_do_dismiss_locked) #20
  unreachable

7:                                                ; preds = %5
  %8 = load ptr, ptr %2, align 8
  %9 = getelementptr inbounds nuw %struct.Job, ptr %8, i32 0, i32 13
  store i8 0, ptr %9, align 4
  %10 = load ptr, ptr %2, align 8
  %11 = getelementptr inbounds nuw %struct.Job, ptr %10, i32 0, i32 14
  store i8 0, ptr %11, align 1
  %12 = load ptr, ptr %2, align 8
  %13 = getelementptr inbounds nuw %struct.Job, ptr %12, i32 0, i32 18
  store i8 1, ptr %13, align 1
  %14 = load ptr, ptr %2, align 8
  call void @job_txn_del_job_locked(ptr noundef %14)
  %15 = load ptr, ptr %2, align 8
  call void @job_state_transition_locked(ptr noundef %15, i32 noundef 10)
  %16 = load ptr, ptr %2, align 8
  call void @job_unref_locked(ptr noundef %16)
  ret void
}

; Function Attrs: nounwind sspstrong uwtable
define dso_local void @job_cancel_locked(ptr noundef %0, i1 noundef zeroext %1) #0 {
  %3 = alloca ptr, align 8
  %4 = alloca i8, align 1
  store ptr %0, ptr %3, align 8
  %5 = zext i1 %1 to i8
  store i8 %5, ptr %4, align 1
  %6 = load ptr, ptr %3, align 8
  %7 = getelementptr inbounds nuw %struct.Job, ptr %6, i32 0, i32 10
  %8 = load i32, ptr %7, align 4
  %9 = icmp eq i32 %8, 9
  br i1 %9, label %10, label %12

10:                                               ; preds = %2
  %11 = load ptr, ptr %3, align 8
  call void @job_do_dismiss_locked(ptr noundef %11)
  br label %34

12:                                               ; preds = %2
  %13 = load ptr, ptr %3, align 8
  %14 = load i8, ptr %4, align 1, !range !7, !noundef !8
  %15 = trunc i8 %14 to i1
  call void @job_cancel_async_locked(ptr noundef %13, i1 noundef zeroext %15)
  %16 = load ptr, ptr %3, align 8
  %17 = call zeroext i1 @job_started_locked(ptr noundef %16)
  br i1 %17, label %20, label %18

18:                                               ; preds = %12
  %19 = load ptr, ptr %3, align 8
  call void @job_completed_locked(ptr noundef %19)
  br label %34

20:                                               ; preds = %12
  %21 = load ptr, ptr %3, align 8
  %22 = getelementptr inbounds nuw %struct.Job, ptr %21, i32 0, i32 18
  %23 = load i8, ptr %22, align 1, !range !7, !noundef !8
  %24 = trunc i8 %23 to i1
  br i1 %24, label %25, label %31

25:                                               ; preds = %20
  %26 = load ptr, ptr %3, align 8
  %27 = call zeroext i1 @job_is_cancelled_locked(ptr noundef %26)
  br i1 %27, label %28, label %30

28:                                               ; preds = %25
  %29 = load ptr, ptr %3, align 8
  call void @job_completed_txn_abort_locked(ptr noundef %29)
  br label %30

30:                                               ; preds = %28, %25
  br label %33

31:                                               ; preds = %20
  %32 = load ptr, ptr %3, align 8
  call void @job_enter_cond_locked(ptr noundef %32, ptr noundef null)
  br label %33

33:                                               ; preds = %31, %30
  br label %34

34:                                               ; preds = %10, %33, %18
  ret void
}