; Function Attrs: nounwind sspstrong uwtable
define dso_local void @job_cancel_locked(ptr noundef %0, i1 noundef zeroext %1) local_unnamed_addr #0 {
  %3 = getelementptr inbounds nuw i8, ptr %0, i64 124
  %4 = load i32, ptr %3, align 4
  %5 = icmp eq i32 %4, 9
  br i1 %5, label %6, label %25

6:                                                ; preds = %2
  %7 = getelementptr inbounds nuw i8, ptr %0, i64 180
  store i8 0, ptr %7, align 4
  %8 = getelementptr inbounds nuw i8, ptr %0, i64 181
  store i8 0, ptr %8, align 1
  %9 = getelementptr inbounds nuw i8, ptr %0, i64 185
  store i8 1, ptr %9, align 1
  %10 = getelementptr inbounds nuw i8, ptr %0, i64 256
  %11 = load ptr, ptr %10, align 8
  %.not.i.i = icmp eq ptr %11, null
  br i1 %.not.i.i, label %job_do_dismiss_locked.exit, label %12

12:                                               ; preds = %6
  %13 = getelementptr inbounds nuw i8, ptr %0, i64 264
  %14 = load ptr, ptr %13, align 8
  %.not10.i.i = icmp eq ptr %14, null
  %.phi.trans.insert.i.i = getelementptr inbounds nuw i8, ptr %0, i64 272
  %.pre11.i.i = load ptr, ptr %.phi.trans.insert.i.i, align 8
  br i1 %.not10.i.i, label %._crit_edge.i.i, label %15

15:                                               ; preds = %12
  %16 = getelementptr inbounds nuw i8, ptr %14, i64 272
  store ptr %.pre11.i.i, ptr %16, align 8
  %.pre.i.i = load ptr, ptr %13, align 8
  br label %._crit_edge.i.i

._crit_edge.i.i:                                  ; preds = %15, %12
  %17 = phi ptr [ %.pre.i.i, %15 ], [ null, %12 ]
  store ptr %17, ptr %.pre11.i.i, align 8
  tail call void @llvm.memset.p0.i64(ptr noundef nonnull align 8 dereferenceable(16) %13, i8 0, i64 16, i1 false)
  %18 = load ptr, ptr %10, align 8
  %.not.i.i.i = icmp eq ptr %18, null
  br i1 %.not.i.i.i, label %job_txn_unref_locked.exit.i.i, label %19

19:                                               ; preds = %._crit_edge.i.i
  %20 = getelementptr inbounds nuw i8, ptr %18, i64 16
  %21 = load i32, ptr %20, align 8
  %22 = add i32 %21, -1
  store i32 %22, ptr %20, align 8
  %23 = icmp eq i32 %22, 0
  br i1 %23, label %24, label %job_txn_unref_locked.exit.i.i

24:                                               ; preds = %19
  tail call void @g_free(ptr noundef nonnull %18) #15
  br label %job_txn_unref_locked.exit.i.i

job_txn_unref_locked.exit.i.i:                    ; preds = %24, %19, %._crit_edge.i.i
  store ptr null, ptr %10, align 8
  br label %job_do_dismiss_locked.exit

job_do_dismiss_locked.exit:                       ; preds = %6, %job_txn_unref_locked.exit.i.i
  tail call fastcc void @job_state_transition_locked(ptr noundef nonnull %0, i32 noundef 10)
  tail call void @job_unref_locked(ptr noundef nonnull %0)
  br label %job_enter_cond_locked.exit

25:                                               ; preds = %2
  tail call fastcc void @job_cancel_async_locked(ptr noundef nonnull %0, i1 noundef zeroext %1)
  %26 = getelementptr i8, ptr %0, i64 16
  %.val = load ptr, ptr %26, align 8
  %.not = icmp eq ptr %.val, null
  br i1 %.not, label %27, label %28

27:                                               ; preds = %25
  tail call fastcc void @job_completed_locked(ptr noundef nonnull %0)
  br label %job_enter_cond_locked.exit

28:                                               ; preds = %25
  %29 = getelementptr inbounds nuw i8, ptr %0, i64 185
  %30 = load i8, ptr %29, align 1, !range !4, !noundef !5
  %31 = trunc nuw i8 %30 to i1
  br i1 %31, label %32, label %38

32:                                               ; preds = %28
  %33 = getelementptr inbounds nuw i8, ptr %0, i64 183
  %34 = load i8, ptr %33, align 1, !range !4, !noundef !5
  %35 = trunc nuw i8 %34 to i1
  %.phi.trans.insert.i = getelementptr inbounds nuw i8, ptr %0, i64 184
  %.pre.i = load i8, ptr %.phi.trans.insert.i, align 8, !range !4
  %.pre3.i = trunc nuw i8 %.pre.i to i1
  %.pre3.not.i = xor i1 %.pre3.i, true
  %brmerge.i = select i1 %35, i1 true, i1 %.pre3.not.i
  br i1 %brmerge.i, label %job_is_cancelled_locked.exit, label %36

36:                                               ; preds = %32
  tail call void @__assert_fail(ptr noundef nonnull @.str.5, ptr noundef nonnull @.str, i32 noundef 250, ptr noundef nonnull @__PRETTY_FUNCTION__.job_is_cancelled_locked) #17
  unreachable

job_is_cancelled_locked.exit:                     ; preds = %32
  %.pre3.mux.i = select i1 %35, i1 %.pre3.i, i1 false
  br i1 %.pre3.mux.i, label %37, label %job_enter_cond_locked.exit

37:                                               ; preds = %job_is_cancelled_locked.exit
  tail call fastcc void @job_completed_txn_abort_locked(ptr noundef nonnull %0)
  br label %job_enter_cond_locked.exit

38:                                               ; preds = %28
  %39 = getelementptr inbounds nuw i8, ptr %0, i64 180
  %40 = load i8, ptr %39, align 4, !range !4, !noundef !5
  %41 = trunc nuw i8 %40 to i1
  br i1 %41, label %job_enter_cond_locked.exit, label %42

42:                                               ; preds = %38
  %43 = getelementptr inbounds nuw i8, ptr %0, i64 128
  tail call void @timer_del(ptr noundef nonnull %43) #15
  store i8 1, ptr %39, align 4
  tail call void @qemu_mutex_unlock_impl(ptr noundef nonnull @job_mutex, ptr noundef nonnull @.str, i32 noundef 106) #15
  %44 = load ptr, ptr %26, align 8
  tail call void @aio_co_wake(ptr noundef %44) #15
  %45 = load atomic i64, ptr @qemu_mutex_lock_func monotonic, align 8
  %46 = inttoptr i64 %45 to ptr
  tail call void %46(ptr noundef nonnull @job_mutex, ptr noundef nonnull @.str, i32 noundef 101) #15
  br label %job_enter_cond_locked.exit

job_enter_cond_locked.exit:                       ; preds = %42, %38, %37, %job_is_cancelled_locked.exit, %27, %job_do_dismiss_locked.exit
  ret void
}